target datalayout = "e-m:e-p270:32:32-p271:32:32-p272:64:64-i64:64-i128:128-f80:128-n8:16:32:64-S128"
target triple = "x86_64-pc-linux-gnu"

%struct.SN_env = type { ptr, i32, i32, i32, i32, i32, ptr, ptr }

; Function Attrs: nounwind uwtable
define internal i32 @r_R1(ptr noundef %0) #0 {
  %2 = alloca i32, align 4
  %3 = alloca ptr, align 8
  store ptr %0, ptr %3, align 8
  %4 = load ptr, ptr %3, align 8
  %5 = getelementptr inbounds nuw %struct.SN_env, ptr %4, i32 0, i32 7
  %6 = load ptr, ptr %5, align 8
  %7 = getelementptr inbounds i32, ptr %6, i64 1
  %8 = load i32, ptr %7, align 4
  %9 = load ptr, ptr %3, align 8
  %10 = getelementptr inbounds nuw %struct.SN_env, ptr %9, i32 0, i32 1
  %11 = load i32, ptr %10, align 8
  %12 = icmp sle i32 %8, %11
  br i1 %12, label %14, label %13

13:                                               ; preds = %1
  store i32 0, ptr %2, align 4
  br label %15

14:                                               ; preds = %1
  store i32 1, ptr %2, align 4
  br label %15

15:                                               ; preds = %14, %13
  %16 = load i32, ptr %2, align 4
  ret i32 %16
}

; Function Attrs: nounwind uwtable
define internal i32 @r_R2(ptr noundef %0) #0 {
  %2 = alloca i32, align 4
  %3 = alloca ptr, align 8
  store ptr %0, ptr %3, align 8
  %4 = load ptr, ptr %3, align 8
  %5 = getelementptr inbounds nuw %struct.SN_env, ptr %4, i32 0, i32 7
  %6 = load ptr, ptr %5, align 8
  %7 = getelementptr inbounds i32, ptr %6, i64 0
  %8 = load i32, ptr %7, align 4
  %9 = load ptr, ptr %3, align 8
  %10 = getelementptr inbounds nuw %struct.SN_env, ptr %9, i32 0, i32 1
  %11 = load i32, ptr %10, align 8
  %12 = icmp sle i32 %8, %11
  br i1 %12, label %14, label %13

13:                                               ; preds = %1
  store i32 0, ptr %2, align 4
  br label %15

14:                                               ; preds = %1
  store i32 1, ptr %2, align 4
  br label %15

15:                                               ; preds = %14, %13
  %16 = load i32, ptr %2, align 4
  ret i32 %16
}

; Function Attrs: nounwind uwtable
define internal i32 @r_Step_5(ptr noundef %0) #0 {
  %2 = alloca i32, align 4
  %3 = alloca ptr, align 8
  %4 = alloca i32, align 4
  %5 = alloca i32, align 4
  %6 = alloca i32, align 4
  %7 = alloca i32, align 4
  %8 = alloca i32, align 4
  %9 = alloca i32, align 4
  %10 = alloca i32, align 4
  %11 = alloca i32, align 4
  %12 = alloca i32, align 4
  %13 = alloca i32, align 4
  store ptr %0, ptr %3, align 8
  call void @llvm.lifetime.start.p0(i64 4, ptr %4) #3
  %14 = load ptr, ptr %3, align 8
  %15 = getelementptr inbounds nuw %struct.SN_env, ptr %14, i32 0, i32 1
  %16 = load i32, ptr %15, align 8
  %17 = load ptr, ptr %3, align 8
  %18 = getelementptr inbounds nuw %struct.SN_env, ptr %17, i32 0, i32 5
  store i32 %16, ptr %18, align 8
  %19 = load ptr, ptr %3, align 8
  %20 = getelementptr inbounds nuw %struct.SN_env, ptr %19, i32 0, i32 1
  %21 = load i32, ptr %20, align 8
  %22 = load ptr, ptr %3, align 8
  %23 = getelementptr inbounds nuw %struct.SN_env, ptr %22, i32 0, i32 3
  %24 = load i32, ptr %23, align 8
  %25 = icmp sle i32 %21, %24
  br i1 %25, label %52, label %26

26:                                               ; preds = %1
  %27 = load ptr, ptr %3, align 8
  %28 = getelementptr inbounds nuw %struct.SN_env, ptr %27, i32 0, i32 0
  %29 = load ptr, ptr %28, align 8
  %30 = load ptr, ptr %3, align 8
  %31 = getelementptr inbounds nuw %struct.SN_env, ptr %30, i32 0, i32 1
  %32 = load i32, ptr %31, align 8
  %33 = sub i32 %32, 1
  %34 = sext i32 %33 to i64
  %35 = getelementptr inbounds i8, ptr %29, i64 %34
  %36 = load i8, ptr %35, align 1
  %37 = zext i8 %36 to i32
  %38 = icmp ne i32 %37, 101
  br i1 %38, label %39, label %53

39:                                               ; preds = %26
  %40 = load ptr, ptr %3, align 8
  %41 = getelementptr inbounds nuw %struct.SN_env, ptr %40, i32 0, i32 0
  %42 = load ptr, ptr %41, align 8
  %43 = load ptr, ptr %3, align 8
  %44 = getelementptr inbounds nuw %struct.SN_env, ptr %43, i32 0, i32 1
  %45 = load i32, ptr %44, align 8
  %46 = sub i32 %45, 1
  %47 = sext i32 %46 to i64
  %48 = getelementptr inbounds i8, ptr %42, i64 %47
  %49 = load i8, ptr %48, align 1
  %50 = zext i8 %49 to i32
  %51 = icmp ne i32 %50, 108
  br i1 %51, label %52, label %53

52:                                               ; preds = %39, %1
  store i32 0, ptr %2, align 4
  store i32 1, ptr %5, align 4
  br label %200

53:                                               ; preds = %39, %26
  %54 = load ptr, ptr %3, align 8
  %55 = call i32 @find_among_b(ptr noundef %54, ptr noundef @a_8, i32 noundef 2)
  store i32 %55, ptr %4, align 4
  %56 = load i32, ptr %4, align 4
  %57 = icmp ne i32 %56, 0
  br i1 %57, label %59, label %58

58:                                               ; preds = %53
  store i32 0, ptr %2, align 4
  store i32 1, ptr %5, align 4
  br label %200

59:                                               ; preds = %53
  %60 = load ptr, ptr %3, align 8
  %61 = getelementptr inbounds nuw %struct.SN_env, ptr %60, i32 0, i32 1
  %62 = load i32, ptr %61, align 8
  %63 = load ptr, ptr %3, align 8
  %64 = getelementptr inbounds nuw %struct.SN_env, ptr %63, i32 0, i32 4
  store i32 %62, ptr %64, align 4
  %65 = load i32, ptr %4, align 4
  switch i32 %65, label %199 [
    i32 1, label %66
    i32 2, label %152
  ]

66:                                               ; preds = %59
  call void @llvm.lifetime.start.p0(i64 4, ptr %6) #3
  %67 = load ptr, ptr %3, align 8
  %68 = getelementptr inbounds nuw %struct.SN_env, ptr %67, i32 0, i32 2
  %69 = load i32, ptr %68, align 4
  %70 = load ptr, ptr %3, align 8
  %71 = getelementptr inbounds nuw %struct.SN_env, ptr %70, i32 0, i32 1
  %72 = load i32, ptr %71, align 8
  %73 = sub i32 %69, %72
  store i32 %73, ptr %6, align 4
  call void @llvm.lifetime.start.p0(i64 4, ptr %7) #3
  %74 = load ptr, ptr %3, align 8
  %75 = call i32 @r_R2(ptr noundef %74)
  store i32 %75, ptr %7, align 4
  %76 = load i32, ptr %7, align 4
  %77 = icmp eq i32 %76, 0
  br i1 %77, label %78, label %79

78:                                               ; preds = %66
  store i32 3, ptr %5, align 4
  br label %85

79:                                               ; preds = %66
  %80 = load i32, ptr %7, align 4
  %81 = icmp slt i32 %80, 0
  br i1 %81, label %82, label %84

82:                                               ; preds = %79
  %83 = load i32, ptr %7, align 4
  store i32 %83, ptr %2, align 4
  store i32 1, ptr %5, align 4
  br label %85

84:                                               ; preds = %79
  store i32 0, ptr %5, align 4
  br label %85

85:                                               ; preds = %78, %84, %82
  call void @llvm.lifetime.end.p0(i64 4, ptr %7) #3
  %86 = load i32, ptr %5, align 4
  switch i32 %86, label %138 [
    i32 0, label %87
    i32 3, label %88
  ]

87:                                               ; preds = %85
  store i32 4, ptr %5, align 4
  br label %138

88:                                               ; preds = %85
  %89 = load ptr, ptr %3, align 8
  %90 = getelementptr inbounds nuw %struct.SN_env, ptr %89, i32 0, i32 2
  %91 = load i32, ptr %90, align 4
  %92 = load i32, ptr %6, align 4
  %93 = sub i32 %91, %92
  %94 = load ptr, ptr %3, align 8
  %95 = getelementptr inbounds nuw %struct.SN_env, ptr %94, i32 0, i32 1
  store i32 %93, ptr %95, align 8
  call void @llvm.lifetime.start.p0(i64 4, ptr %8) #3
  %96 = load ptr, ptr %3, align 8
  %97 = call i32 @r_R1(ptr noundef %96)
  store i32 %97, ptr %8, align 4
  %98 = load i32, ptr %8, align 4
  %99 = icmp sle i32 %98, 0
  br i1 %99, label %100, label %102

100:                                              ; preds = %88
  %101 = load i32, ptr %8, align 4
  store i32 %101, ptr %2, align 4
  store i32 1, ptr %5, align 4
  br label %103

102:                                              ; preds = %88
  store i32 0, ptr %5, align 4
  br label %103

103:                                              ; preds = %102, %100
  call void @llvm.lifetime.end.p0(i64 4, ptr %8) #3
  %104 = load i32, ptr %5, align 4
  switch i32 %104, label %138 [
    i32 0, label %105
  ]

105:                                              ; preds = %103
  call void @llvm.lifetime.start.p0(i64 4, ptr %9) #3
  %106 = load ptr, ptr %3, align 8
  %107 = getelementptr inbounds nuw %struct.SN_env, ptr %106, i32 0, i32 2
  %108 = load i32, ptr %107, align 4
  %109 = load ptr, ptr %3, align 8
  %110 = getelementptr inbounds nuw %struct.SN_env, ptr %109, i32 0, i32 1
  %111 = load i32, ptr %110, align 8
  %112 = sub i32 %108, %111
  store i32 %112, ptr %9, align 4
  call void @llvm.lifetime.start.p0(i64 4, ptr %10) #3
  %113 = load ptr, ptr %3, align 8
  %114 = call i32 @r_shortv(ptr noundef %113)
  store i32 %114, ptr %10, align 4
  %115 = load i32, ptr %10, align 4
  %116 = icmp eq i32 %115, 0
  br i1 %116, label %117, label %118

117:                                              ; preds = %105
  store i32 5, ptr %5, align 4
  br label %124

118:                                              ; preds = %105
  %119 = load i32, ptr %10, align 4
  %120 = icmp slt i32 %119, 0
  br i1 %120, label %121, label %123

121:                                              ; preds = %118
  %122 = load i32, ptr %10, align 4
  store i32 %122, ptr %2, align 4
  store i32 1, ptr %5, align 4
  br label %124

123:                                              ; preds = %118
  store i32 0, ptr %5, align 4
  br label %124

124:                                              ; preds = %117, %123, %121
  call void @llvm.lifetime.end.p0(i64 4, ptr %10) #3
  %125 = load i32, ptr %5, align 4
  switch i32 %125, label %135 [
    i32 0, label %126
    i32 5, label %127
  ]

126:                                              ; preds = %124
  store i32 0, ptr %2, align 4
  store i32 1, ptr %5, align 4
  br label %135

127:                                              ; preds = %124
  %128 = load ptr, ptr %3, align 8
  %129 = getelementptr inbounds nuw %struct.SN_env, ptr %128, i32 0, i32 2
  %130 = load i32, ptr %129, align 4
  %131 = load i32, ptr %9, align 4
  %132 = sub i32 %130, %131
  %133 = load ptr, ptr %3, align 8
  %134 = getelementptr inbounds nuw %struct.SN_env, ptr %133, i32 0, i32 1
  store i32 %132, ptr %134, align 8
  store i32 0, ptr %5, align 4
  br label %135

135:                                              ; preds = %127, %126, %124
  call void @llvm.lifetime.end.p0(i64 4, ptr %9) #3
  %136 = load i32, ptr %5, align 4
  switch i32 %136, label %138 [
    i32 0, label %137
  ]

137:                                              ; preds = %135
  store i32 0, ptr %5, align 4
  br label %138

138:                                              ; preds = %87, %137, %135, %103, %85
  call void @llvm.lifetime.end.p0(i64 4, ptr %6) #3
  %139 = load i32, ptr %5, align 4
  switch i32 %139, label %200 [
    i32 0, label %140
    i32 4, label %141
  ]

140:                                              ; preds = %138
  br label %141

141:                                              ; preds = %140, %138
  call void @llvm.lifetime.start.p0(i64 4, ptr %11) #3
  %142 = load ptr, ptr %3, align 8
  %143 = call i32 @slice_del(ptr noundef %142)
  store i32 %143, ptr %11, align 4
  %144 = load i32, ptr %11, align 4
  %145 = icmp slt i32 %144, 0
  br i1 %145, label %146, label %148

146:                                              ; preds = %141
  %147 = load i32, ptr %11, align 4
  store i32 %147, ptr %2, align 4
  store i32 1, ptr %5, align 4
  br label %149

148:                                              ; preds = %141
  store i32 0, ptr %5, align 4
  br label %149

149:                                              ; preds = %148, %146
  call void @llvm.lifetime.end.p0(i64 4, ptr %11) #3
  %150 = load i32, ptr %5, align 4
  switch i32 %150, label %200 [
    i32 0, label %151
  ]

151:                                              ; preds = %149
  br label %199

152:                                              ; preds = %59
  call void @llvm.lifetime.start.p0(i64 4, ptr %12) #3
  %153 = load ptr, ptr %3, align 8
  %154 = call i32 @r_R2(ptr noundef %153)
  store i32 %154, ptr %12, align 4
  %155 = load i32, ptr %12, align 4
  %156 = icmp sle i32 %155, 0
  br i1 %156, label %157, label %159

157:                                              ; preds = %152
  %158 = load i32, ptr %12, align 4
  store i32 %158, ptr %2, align 4
  store i32 1, ptr %5, align 4
  br label %160

159:                                              ; preds = %152
  store i32 0, ptr %5, align 4
  br label %160

160:                                              ; preds = %159, %157
  call void @llvm.lifetime.end.p0(i64 4, ptr %12) #3
  %161 = load i32, ptr %5, align 4
  switch i32 %161, label %200 [
    i32 0, label %162
  ]

162:                                              ; preds = %160
  %163 = load ptr, ptr %3, align 8
  %164 = getelementptr inbounds nuw %struct.SN_env, ptr %163, i32 0, i32 1
  %165 = load i32, ptr %164, align 8
  %166 = load ptr, ptr %3, align 8
  %167 = getelementptr inbounds nuw %struct.SN_env, ptr %166, i32 0, i32 3
  %168 = load i32, ptr %167, align 8
  %169 = icmp sle i32 %165, %168
  br i1 %169, label %183, label %170

170:                                              ; preds = %162
  %171 = load ptr, ptr %3, align 8
  %172 = getelementptr inbounds nuw %struct.SN_env, ptr %171, i32 0, i32 0
  %173 = load ptr, ptr %172, align 8
  %174 = load ptr, ptr %3, align 8
  %175 = getelementptr inbounds nuw %struct.SN_env, ptr %174, i32 0, i32 1
  %176 = load i32, ptr %175, align 8
  %177 = sub i32 %176, 1
  %178 = sext i32 %177 to i64
  %179 = getelementptr inbounds i8, ptr %173, i64 %178
  %180 = load i8, ptr %179, align 1
  %181 = zext i8 %180 to i32
  %182 = icmp ne i32 %181, 108
  br i1 %182, label %183, label %184

183:                                              ; preds = %170, %162
  store i32 0, ptr %2, align 4
  store i32 1, ptr %5, align 4
  br label %200

184:                                              ; preds = %170
  %185 = load ptr, ptr %3, align 8
  %186 = getelementptr inbounds nuw %struct.SN_env, ptr %185, i32 0, i32 1
  %187 = load i32, ptr %186, align 8
  %188 = add i32 %187, -1
  store i32 %188, ptr %186, align 8
  call void @llvm.lifetime.start.p0(i64 4, ptr %13) #3
  %189 = load ptr, ptr %3, align 8
  %190 = call i32 @slice_del(ptr noundef %189)
  store i32 %190, ptr %13, align 4
  %191 = load i32, ptr %13, align 4
  %192 = icmp slt i32 %191, 0
  br i1 %192, label %193, label %195

193:                                              ; preds = %184
  %194 = load i32, ptr %13, align 4
  store i32 %194, ptr %2, align 4
  store i32 1, ptr %5, align 4
  br label %196

195:                                              ; preds = %184
  store i32 0, ptr %5, align 4
  br label %196

196:                                              ; preds = %195, %193
  call void @llvm.lifetime.end.p0(i64 4, ptr %13) #3
  %197 = load i32, ptr %5, align 4
  switch i32 %197, label %200 [
    i32 0, label %198
  ]

198:                                              ; preds = %196
  br label %199

199:                                              ; preds = %59, %198, %151
  store i32 1, ptr %2, align 4
  store i32 1, ptr %5, align 4
  br label %200

200:                                              ; preds = %199, %196, %183, %160, %149, %138, %58, %52
  call void @llvm.lifetime.end.p0(i64 4, ptr %4) #3
  %201 = load i32, ptr %2, align 4
  ret i32 %201
}