; Function Attrs: nounwind uwtable
define internal fastcc range(i32 -2147483648, 2) i32 @r_Step_5(ptr noundef initializes((24, 28)) %0) unnamed_addr #0 {
  %2 = getelementptr inbounds nuw i8, ptr %0, i64 8
  %3 = load i32, ptr %2, align 8
  %4 = getelementptr inbounds nuw i8, ptr %0, i64 24
  store i32 %3, ptr %4, align 8
  %5 = getelementptr inbounds nuw i8, ptr %0, i64 16
  %6 = load i32, ptr %5, align 8
  %.not = icmp sgt i32 %3, %6
  br i1 %.not, label %7, label %.thread

7:                                                ; preds = %1
  %8 = load ptr, ptr %0, align 8
  %9 = sext i32 %3 to i64
  %10 = getelementptr i8, ptr %8, i64 %9
  %11 = getelementptr i8, ptr %10, i64 -1
  %12 = load i8, ptr %11, align 1
  switch i8 %12, label %.thread [
    i8 101, label %13
    i8 108, label %13
  ]

13:                                               ; preds = %7, %7
  %14 = tail call i32 @find_among_b(ptr noundef nonnull %0, ptr noundef nonnull @a_8, i32 noundef 2) #3
  %.not79 = icmp eq i32 %14, 0
  br i1 %.not79, label %.thread, label %15

15:                                               ; preds = %13
  %16 = load i32, ptr %2, align 8
  %17 = getelementptr inbounds nuw i8, ptr %0, i64 20
  store i32 %16, ptr %17, align 4
  switch i32 %14, label %46 [
    i32 1, label %18
    i32 2, label %33
  ]

18:                                               ; preds = %15
  %19 = getelementptr inbounds nuw i8, ptr %0, i64 12
  %20 = load i32, ptr %19, align 4
  %.neg = sub i32 %16, %20
  %21 = getelementptr i8, ptr %0, i64 40
  %.val88 = load ptr, ptr %21, align 8
  %.val88.val = load i32, ptr %.val88, align 4
  %.not.i.not = icmp sgt i32 %.val88.val, %16
  br i1 %.not.i.not, label %22, label %30

22:                                               ; preds = %18
  %23 = getelementptr i8, ptr %.val88, i64 4
  %.val86.val = load i32, ptr %23, align 4
  %.not.i91.not = icmp sgt i32 %.val86.val, %16
  br i1 %.not.i91.not, label %.thread, label %24

24:                                               ; preds = %22
  %25 = tail call fastcc i32 @r_shortv(ptr noundef nonnull %0)
  %26 = icmp eq i32 %25, 0
  br i1 %26, label %27, label %.thread

27:                                               ; preds = %24
  %28 = load i32, ptr %19, align 4
  %29 = add i32 %.neg, %28
  store i32 %29, ptr %2, align 8
  br label %30

30:                                               ; preds = %27, %18
  %31 = tail call i32 @slice_del(ptr noundef nonnull %0) #3
  %32 = icmp sgt i32 %31, -1
  br i1 %32, label %46, label %.thread

33:                                               ; preds = %15
  %34 = getelementptr i8, ptr %0, i64 40
  %.val90 = load ptr, ptr %34, align 8
  %.val90.val = load i32, ptr %.val90, align 4
  %.not.i93.not = icmp sgt i32 %.val90.val, %16
  br i1 %.not.i93.not, label %.thread, label %35

35:                                               ; preds = %33
  %36 = load i32, ptr %5, align 8
  %.not81 = icmp sgt i32 %16, %36
  br i1 %.not81, label %37, label %.thread

37:                                               ; preds = %35
  %38 = load ptr, ptr %0, align 8
  %39 = add nsw i32 %16, -1
  %40 = sext i32 %39 to i64
  %41 = getelementptr inbounds i8, ptr %38, i64 %40
  %42 = load i8, ptr %41, align 1
  %.not82 = icmp eq i8 %42, 108
  br i1 %.not82, label %43, label %.thread

43:                                               ; preds = %37
  store i32 %39, ptr %2, align 8
  %44 = tail call i32 @slice_del(ptr noundef nonnull %0) #3
  %45 = icmp sgt i32 %44, -1
  br i1 %45, label %46, label %.thread

46:                                               ; preds = %43, %30, %15
  br label %.thread

.thread:                                          ; preds = %24, %22, %35, %37, %13, %1, %7, %30, %43, %33, %46
  %.0 = phi i32 [ 1, %46 ], [ %44, %43 ], [ 0, %33 ], [ %31, %30 ], [ 0, %7 ], [ 0, %1 ], [ 0, %13 ], [ 0, %37 ], [ 0, %35 ], [ 0, %24 ], [ 0, %22 ]
  ret i32 %.0
}